target datalayout = "e-m:e-p270:32:32-p271:32:32-p272:64:64-i64:64-i128:128-f80:128-n8:16:32:64-S128"
target triple = "x86_64-pc-linux-gnu"

%struct.DdNode = type { i32, i32, ptr, %union.anon, i64 }
%union.anon = type { %struct.DdChildren }
%struct.DdChildren = type { ptr, ptr }
%struct.DdManager = type { %struct.DdNode, ptr, ptr, ptr, ptr, ptr, ptr, ptr, i32, i32, double, double, double, i32, i32, i32, i32, i32, i32, ptr, ptr, %struct.DdSubtable, i32, i32, i32, i32, i32, i32, i32, double, i32, i32, i32, ptr, i64, double, i32, ptr, ptr, ptr, ptr, ptr, ptr, ptr, i32, ptr, ptr, ptr, ptr, ptr, ptr, i32, i32, i32, double, i32, i32, i32, i32, double, double, i32, i32, i32, i32, i32, i32, i32, i32, i32, ptr, ptr, i32, i32, i32, i32, i32, i32, ptr, ptr, ptr, ptr, ptr, ptr, ptr, ptr, i32, i64, i64, i64, i32, i64, i64, double, double, double, double, double, double, i32, ptr, ptr, i64 }
%struct.DdSubtable = type { ptr, i32, i32, i32, i32, i32, i32, i32, i32, i32, i32, i32 }

; Function Attrs: nounwind uwtable
define i32 @cuddIsInDeathRow(ptr noundef %0, ptr noundef %1) #0 {
  %3 = alloca i32, align 4
  %4 = alloca ptr, align 8
  %5 = alloca ptr, align 8
  %6 = alloca i32, align 4
  %7 = alloca i32, align 4
  store ptr %0, ptr %4, align 8, !tbaa !12
  store ptr %1, ptr %5, align 8, !tbaa !3
  call void @llvm.lifetime.start.p0(i64 4, ptr %6) #4
  store i32 0, ptr %6, align 4, !tbaa !29
  br label %8

8:                                                ; preds = %27, %2
  %9 = load i32, ptr %6, align 4, !tbaa !29
  %10 = load ptr, ptr %4, align 8, !tbaa !12
  %11 = getelementptr inbounds nuw %struct.DdManager, ptr %10, i32 0, i32 51
  %12 = load i32, ptr %11, align 8, !tbaa !72
  %13 = icmp slt i32 %9, %12
  br i1 %13, label %14, label %30

14:                                               ; preds = %8
  %15 = load ptr, ptr %5, align 8, !tbaa !3
  %16 = load ptr, ptr %4, align 8, !tbaa !12
  %17 = getelementptr inbounds nuw %struct.DdManager, ptr %16, i32 0, i32 50
  %18 = load ptr, ptr %17, align 8, !tbaa !42
  %19 = load i32, ptr %6, align 4, !tbaa !29
  %20 = sext i32 %19 to i64
  %21 = getelementptr inbounds ptr, ptr %18, i64 %20
  %22 = load ptr, ptr %21, align 8, !tbaa !3
  %23 = icmp eq ptr %15, %22
  br i1 %23, label %24, label %26

24:                                               ; preds = %14
  %25 = load i32, ptr %6, align 4, !tbaa !29
  store i32 %25, ptr %3, align 4
  store i32 1, ptr %7, align 4
  br label %31

26:                                               ; preds = %14
  br label %27

27:                                               ; preds = %26
  %28 = load i32, ptr %6, align 4, !tbaa !29
  %29 = add nsw i32 %28, 1
  store i32 %29, ptr %6, align 4, !tbaa !29
  br label %8, !llvm.loop !79

30:                                               ; preds = %8
  store i32 -1, ptr %3, align 4
  store i32 1, ptr %7, align 4
  br label %31

31:                                               ; preds = %30, %24
  call void @llvm.lifetime.end.p0(i64 4, ptr %6) #4
  %32 = load i32, ptr %3, align 4
  ret i32 %32
}